target datalayout = "e-m:e-p270:32:32-p271:32:32-p272:64:64-i64:64-i128:128-f80:128-n8:16:32:64-S128"
target triple = "x86_64-unknown-linux-gnu"

%"class.icu_75::UnicodeString" = type { %"class.icu_75::Replaceable", %"union.icu_75::UnicodeString::StackBufferOrFields" }
%"class.icu_75::Replaceable" = type { %"class.icu_75::UObject" }
%"class.icu_75::UObject" = type { ptr }
%"union.icu_75::UnicodeString::StackBufferOrFields" = type { %struct.anon.0, [32 x i8] }
%struct.anon.0 = type { i16, i32, i32, ptr }
%"class.icu_75::UVector" = type { %"class.icu_75::UObject", i32, i32, ptr, ptr, ptr }
%"class.icu_75::TransliteratorEntry" = type { i32, %"class.icu_75::UnicodeString", i32, ptr, %union.anon }
%union.anon = type { %struct.anon.1 }
%struct.anon.1 = type { ptr, %"union.icu_75::Transliterator::Token" }
%"union.icu_75::Transliterator::Token" = type { ptr }

; Function Attrs: mustprogress nounwind uwtable
define linkonce_odr noundef signext i8 @_ZNK6icu_757UVector7isEmptyEv(ptr noundef nonnull align 8 dereferenceable(40) %this) #0 comdat align 2 {
entry:
  %this.addr = alloca ptr, align 8
  store ptr %this, ptr %this.addr, align 8
  %this1 = load ptr, ptr %this.addr, align 8
  %count = getelementptr inbounds %"class.icu_75::UVector", ptr %this1, i32 0, i32 1
  %0 = load i32, ptr %count, align 8
  %cmp = icmp eq i32 %0, 0
  %conv = zext i1 %cmp to i8
  ret i8 %conv
}

; Function Attrs: mustprogress nounwind uwtable
define void @_ZN6icu_7519TransliteratorEntryD2Ev(ptr noundef nonnull align 8 dereferenceable(104) %this) unnamed_addr #0 align 2 personality ptr @__gxx_personality_v0 {
entry:
  %this.addr = alloca ptr, align 8
  store ptr %this, ptr %this.addr, align 8
  %this1 = load ptr, ptr %this.addr, align 8
  %entryType = getelementptr inbounds %"class.icu_75::TransliteratorEntry", ptr %this1, i32 0, i32 0
  %0 = load i32, ptr %entryType, align 8
  %cmp = icmp eq i32 %0, 3
  br i1 %cmp, label %if.then, label %if.else

if.then:                                          ; preds = %entry
  %u = getelementptr inbounds %"class.icu_75::TransliteratorEntry", ptr %this1, i32 0, i32 4
  %1 = load ptr, ptr %u, align 8
  %isnull = icmp eq ptr %1, null
  br i1 %isnull, label %delete.end, label %delete.notnull

delete.notnull:                                   ; preds = %if.then
  %vtable = load ptr, ptr %1, align 8
  %vfn = getelementptr inbounds ptr, ptr %vtable, i64 1
  %2 = load ptr, ptr %vfn, align 8
  call void %2(ptr noundef nonnull align 8 dereferenceable(84) %1) #9
  br label %delete.end

delete.end:                                       ; preds = %delete.notnull, %if.then
  br label %if.end29

if.else:                                          ; preds = %entry
  %entryType2 = getelementptr inbounds %"class.icu_75::TransliteratorEntry", ptr %this1, i32 0, i32 0
  %3 = load i32, ptr %entryType2, align 8
  %cmp3 = icmp eq i32 %3, 4
  br i1 %cmp3, label %if.then4, label %if.else9

if.then4:                                         ; preds = %if.else
  %u5 = getelementptr inbounds %"class.icu_75::TransliteratorEntry", ptr %this1, i32 0, i32 4
  %4 = load ptr, ptr %u5, align 8
  %isnull6 = icmp eq ptr %4, null
  br i1 %isnull6, label %delete.end8, label %delete.notnull7

delete.notnull7:                                  ; preds = %if.then4
  call void @_ZN6icu_7523TransliterationRuleDataD1Ev(ptr noundef nonnull align 8 dereferenceable(1168) %4) #9
  call void @_ZN6icu_757UMemorydlEPv(ptr noundef %4) #9
  br label %delete.end8

delete.end8:                                      ; preds = %delete.notnull7, %if.then4
  br label %if.end28

if.else9:                                         ; preds = %if.else
  %entryType10 = getelementptr inbounds %"class.icu_75::TransliteratorEntry", ptr %this1, i32 0, i32 0
  %5 = load i32, ptr %entryType10, align 8
  %cmp11 = icmp eq i32 %5, 5
  br i1 %cmp11, label %if.then12, label %if.end

if.then12:                                        ; preds = %if.else9
  br label %while.cond

while.cond:                                       ; preds = %delete.end21, %if.then12
  %u13 = getelementptr inbounds %"class.icu_75::TransliteratorEntry", ptr %this1, i32 0, i32 4
  %6 = load ptr, ptr %u13, align 8
  %cmp14 = icmp ne ptr %6, null
  br i1 %cmp14, label %land.rhs, label %land.end

land.rhs:                                         ; preds = %while.cond
  %u15 = getelementptr inbounds %"class.icu_75::TransliteratorEntry", ptr %this1, i32 0, i32 4
  %7 = load ptr, ptr %u15, align 8
  %call = invoke noundef signext i8 @_ZNK6icu_757UVector7isEmptyEv(ptr noundef nonnull align 8 dereferenceable(40) %7)
          to label %invoke.cont unwind label %terminate.lpad

invoke.cont:                                      ; preds = %land.rhs
  %tobool = icmp ne i8 %call, 0
  %lnot = xor i1 %tobool, true
  br label %land.end

land.end:                                         ; preds = %invoke.cont, %while.cond
  %8 = phi i1 [ false, %while.cond ], [ %lnot, %invoke.cont ]
  br i1 %8, label %while.body, label %while.end

while.body:                                       ; preds = %land.end
  %u16 = getelementptr inbounds %"class.icu_75::TransliteratorEntry", ptr %this1, i32 0, i32 4
  %9 = load ptr, ptr %u16, align 8
  %call18 = invoke noundef ptr @_ZN6icu_757UVector15orphanElementAtEi(ptr noundef nonnull align 8 dereferenceable(40) %9, i32 noundef 0)
          to label %invoke.cont17 unwind label %terminate.lpad

invoke.cont17:                                    ; preds = %while.body
  %isnull19 = icmp eq ptr %call18, null
  br i1 %isnull19, label %delete.end21, label %delete.notnull20

delete.notnull20:                                 ; preds = %invoke.cont17
  call void @_ZN6icu_7523TransliterationRuleDataD1Ev(ptr noundef nonnull align 8 dereferenceable(1168) %call18) #9
  call void @_ZN6icu_757UMemorydlEPv(ptr noundef %call18) #9
  br label %delete.end21

delete.end21:                                     ; preds = %delete.notnull20, %invoke.cont17
  br label %while.cond, !llvm.loop !9

while.end:                                        ; preds = %land.end
  %u22 = getelementptr inbounds %"class.icu_75::TransliteratorEntry", ptr %this1, i32 0, i32 4
  %10 = load ptr, ptr %u22, align 8
  %isnull23 = icmp eq ptr %10, null
  br i1 %isnull23, label %delete.end27, label %delete.notnull24

delete.notnull24:                                 ; preds = %while.end
  %vtable25 = load ptr, ptr %10, align 8
  %vfn26 = getelementptr inbounds ptr, ptr %vtable25, i64 1
  %11 = load ptr, ptr %vfn26, align 8
  call void %11(ptr noundef nonnull align 8 dereferenceable(40) %10) #9
  br label %delete.end27

delete.end27:                                     ; preds = %delete.notnull24, %while.end
  br label %if.end

if.end:                                           ; preds = %delete.end27, %if.else9
  br label %if.end28

if.end28:                                         ; preds = %if.end, %delete.end8
  br label %if.end29

if.end29:                                         ; preds = %if.end28, %delete.end
  %compoundFilter = getelementptr inbounds %"class.icu_75::TransliteratorEntry", ptr %this1, i32 0, i32 3
  %12 = load ptr, ptr %compoundFilter, align 8
  %isnull30 = icmp eq ptr %12, null
  br i1 %isnull30, label %delete.end32, label %delete.notnull31

delete.notnull31:                                 ; preds = %if.end29
  call void @_ZN6icu_7510UnicodeSetD1Ev(ptr noundef nonnull align 8 dereferenceable(200) %12) #9
  call void @_ZN6icu_757UMemorydlEPv(ptr noundef %12) #9
  br label %delete.end32

delete.end32:                                     ; preds = %delete.notnull31, %if.end29
  %stringArg = getelementptr inbounds %"class.icu_75::TransliteratorEntry", ptr %this1, i32 0, i32 1
  call void @_ZN6icu_7513UnicodeStringD1Ev(ptr noundef nonnull align 8 dereferenceable(64) %stringArg) #9
  ret void

terminate.lpad:                                   ; preds = %while.body, %land.rhs
  %13 = landingpad { ptr, i32 }
          catch ptr null
  %14 = extractvalue { ptr, i32 } %13, 0
  call void @__clang_call_terminate(ptr %14) #11
  unreachable
}