; Function Attrs: mustprogress nounwind uwtable
define void @_ZN6icu_7519TransliteratorEntryD2Ev(ptr noundef nonnull align 8 dereferenceable(104) %this) unnamed_addr #0 align 2 personality ptr @__gxx_personality_v0 {
entry:
  %0 = load i32, ptr %this, align 8
  switch i32 %0, label %if.end29 [
    i32 3, label %if.then
    i32 4, label %if.then4
    i32 5, label %while.cond.preheader
  ]

while.cond.preheader:                             ; preds = %entry
  %u13 = getelementptr inbounds i8, ptr %this, i64 88
  %1 = load ptr, ptr %u13, align 8
  %cmp14.not8 = icmp eq ptr %1, null
  br i1 %cmp14.not8, label %if.end29, label %land.rhs

if.then:                                          ; preds = %entry
  %u = getelementptr inbounds i8, ptr %this, i64 88
  %2 = load ptr, ptr %u, align 8
  %isnull = icmp eq ptr %2, null
  br i1 %isnull, label %if.end29, label %delete.notnull

delete.notnull:                                   ; preds = %if.then
  %vtable = load ptr, ptr %2, align 8
  %vfn = getelementptr inbounds i8, ptr %vtable, i64 8
  %3 = load ptr, ptr %vfn, align 8
  tail call void %3(ptr noundef nonnull align 8 dereferenceable(84) %2) #15
  br label %if.end29

if.then4:                                         ; preds = %entry
  %u5 = getelementptr inbounds i8, ptr %this, i64 88
  %4 = load ptr, ptr %u5, align 8
  %isnull6 = icmp eq ptr %4, null
  br i1 %isnull6, label %if.end29, label %delete.notnull7

delete.notnull7:                                  ; preds = %if.then4
  tail call void @_ZN6icu_7523TransliterationRuleDataD1Ev(ptr noundef nonnull align 8 dereferenceable(1168) %4) #15
  tail call void @_ZN6icu_757UMemorydlEPv(ptr noundef nonnull %4) #15
  br label %if.end29

land.rhs:                                         ; preds = %while.cond.preheader, %delete.end21
  %5 = phi ptr [ %7, %delete.end21 ], [ %1, %while.cond.preheader ]
  %count.i = getelementptr inbounds i8, ptr %5, i64 8
  %6 = load i32, ptr %count.i, align 8
  %cmp.i.not = icmp eq i32 %6, 0
  br i1 %cmp.i.not, label %delete.notnull24, label %while.body

while.body:                                       ; preds = %land.rhs
  %call18 = invoke noundef ptr @_ZN6icu_757UVector15orphanElementAtEi(ptr noundef nonnull align 8 dereferenceable(40) %5, i32 noundef 0)
          to label %invoke.cont17 unwind label %terminate.lpad

invoke.cont17:                                    ; preds = %while.body
  %isnull19 = icmp eq ptr %call18, null
  br i1 %isnull19, label %delete.end21, label %delete.notnull20

delete.notnull20:                                 ; preds = %invoke.cont17
  tail call void @_ZN6icu_7523TransliterationRuleDataD1Ev(ptr noundef nonnull align 8 dereferenceable(1168) %call18) #15
  tail call void @_ZN6icu_757UMemorydlEPv(ptr noundef nonnull %call18) #15
  br label %delete.end21

delete.end21:                                     ; preds = %delete.notnull20, %invoke.cont17
  %7 = load ptr, ptr %u13, align 8
  %cmp14.not = icmp eq ptr %7, null
  br i1 %cmp14.not, label %if.end29, label %land.rhs, !llvm.loop !7

delete.notnull24:                                 ; preds = %land.rhs
  %vtable25 = load ptr, ptr %5, align 8
  %vfn26 = getelementptr inbounds i8, ptr %vtable25, i64 8
  %8 = load ptr, ptr %vfn26, align 8
  tail call void %8(ptr noundef nonnull align 8 dereferenceable(40) %5) #15
  br label %if.end29

if.end29:                                         ; preds = %delete.end21, %while.cond.preheader, %entry, %delete.notnull7, %if.then4, %delete.notnull24, %if.then, %delete.notnull
  %compoundFilter = getelementptr inbounds i8, ptr %this, i64 80
  %9 = load ptr, ptr %compoundFilter, align 8
  %isnull30 = icmp eq ptr %9, null
  br i1 %isnull30, label %delete.end32, label %delete.notnull31

delete.notnull31:                                 ; preds = %if.end29
  tail call void @_ZN6icu_7510UnicodeSetD1Ev(ptr noundef nonnull align 8 dereferenceable(200) %9) #15
  tail call void @_ZN6icu_757UMemorydlEPv(ptr noundef nonnull %9) #15
  br label %delete.end32

delete.end32:                                     ; preds = %delete.notnull31, %if.end29
  %stringArg = getelementptr inbounds i8, ptr %this, i64 8
  tail call void @_ZN6icu_7513UnicodeStringD1Ev(ptr noundef nonnull align 8 dereferenceable(64) %stringArg) #15
  ret void

terminate.lpad:                                   ; preds = %while.body
  %10 = landingpad { ptr, i32 }
          catch ptr null
  %11 = extractvalue { ptr, i32 } %10, 0
  tail call void @__clang_call_terminate(ptr %11) #17
  unreachable
}